; Function Attrs: mustprogress uwtable
define noundef zeroext i1 @_Z23ultag_isRegionSubtag_77PKci(ptr noundef readonly captures(none) %0, i32 noundef %1) local_unnamed_addr #1 {
  %3 = icmp slt i32 %1, 0
  br i1 %3, label %4, label %7

4:                                                ; preds = %2
  %5 = tail call i64 @strlen(ptr noundef nonnull dereferenceable(1) %0) #20
  %6 = trunc i64 %5 to i32
  br label %7

7:                                                ; preds = %4, %2
  %.0 = phi i32 [ %6, %4 ], [ %1, %2 ]
  switch i32 %.0, label %15 [
    i32 2, label %.preheader
    i32 3, label %.preheader13
  ]

.preheader:                                       ; preds = %7, %.preheader
  %indvars.iv.i = phi i64 [ %indvars.iv.next.i, %.preheader ], [ 0, %7 ]
  %8 = getelementptr inbounds nuw i8, ptr %0, i64 %indvars.iv.i
  %9 = load i8, ptr %8, align 1, !tbaa !15
  %10 = tail call noundef signext i8 @uprv_isASCIILetter_77(i8 noundef signext %9)
  %.not.not.i = icmp ne i8 %10, 0
  %indvars.iv.next.i = add nuw nsw i64 %indvars.iv.i, 1
  %exitcond.not.i = icmp ne i64 %indvars.iv.next.i, 2
  %or.cond.not.i = select i1 %.not.not.i, i1 %exitcond.not.i, i1 false
  br i1 %or.cond.not.i, label %.preheader, label %_ZN12_GLOBAL__N_114_isAlphaStringEPKci.exit, !llvm.loop !16

_ZN12_GLOBAL__N_114_isAlphaStringEPKci.exit:      ; preds = %.preheader
  br i1 %.not.not.i, label %16, label %15

.preheader13:                                     ; preds = %7, %.preheader13
  %indvars.iv.i10 = phi i64 [ %indvars.iv.next.i11, %.preheader13 ], [ 0, %7 ]
  %11 = getelementptr inbounds nuw i8, ptr %0, i64 %indvars.iv.i10
  %12 = load i8, ptr %11, align 1, !tbaa !15
  %13 = add i8 %12, -48
  %14 = icmp ult i8 %13, 10
  %indvars.iv.next.i11 = add nuw nsw i64 %indvars.iv.i10, 1
  %exitcond.i = icmp ne i64 %indvars.iv.next.i11, 3
  %or.cond.not.i12 = select i1 %14, i1 %exitcond.i, i1 false
  br i1 %or.cond.not.i12, label %.preheader13, label %_ZN12_GLOBAL__N_116_isNumericStringEPKci.exit, !llvm.loop !18

_ZN12_GLOBAL__N_116_isNumericStringEPKci.exit:    ; preds = %.preheader13
  br i1 %14, label %16, label %15

15:                                               ; preds = %_ZN12_GLOBAL__N_114_isAlphaStringEPKci.exit, %7, %_ZN12_GLOBAL__N_116_isNumericStringEPKci.exit
  br label %16

16:                                               ; preds = %_ZN12_GLOBAL__N_116_isNumericStringEPKci.exit, %_ZN12_GLOBAL__N_114_isAlphaStringEPKci.exit, %15
  %.08 = phi i1 [ false, %15 ], [ true, %_ZN12_GLOBAL__N_114_isAlphaStringEPKci.exit ], [ true, %_ZN12_GLOBAL__N_116_isNumericStringEPKci.exit ]
  ret i1 %.08
}